target datalayout = "e-m:e-p270:32:32-p271:32:32-p272:64:64-i64:64-i128:128-f80:128-n8:16:32:64-S128"
target triple = "x86_64-pc-linux-gnu"

%"class.icu_77::number::impl::Grouper" = type { i16, i16, i16, i32 }

; Function Attrs: mustprogress uwtable
define noundef zeroext i1 @_ZNK6icu_776number4impl7Grouper15groupAtPositionEiRKNS1_15DecimalQuantityE(ptr noundef nonnull align 4 dereferenceable(12) %0, i32 noundef %1, ptr noundef nonnull align 8 dereferenceable(66) %2) #0 align 2 {
  %4 = alloca i1, align 1
  %5 = alloca ptr, align 8
  %6 = alloca i32, align 4
  %7 = alloca ptr, align 8
  store ptr %0, ptr %5, align 8, !tbaa !7
  store i32 %1, ptr %6, align 4, !tbaa !68
  store ptr %2, ptr %7, align 8, !tbaa !73
  %8 = load ptr, ptr %5, align 8
  %9 = getelementptr inbounds nuw %"class.icu_77::number::impl::Grouper", ptr %8, i32 0, i32 0
  %10 = load i16, ptr %9, align 4, !tbaa !12
  %11 = sext i16 %10 to i32
  %12 = icmp eq i32 %11, -1
  br i1 %12, label %18, label %13

13:                                               ; preds = %3
  %14 = getelementptr inbounds nuw %"class.icu_77::number::impl::Grouper", ptr %8, i32 0, i32 0
  %15 = load i16, ptr %14, align 4, !tbaa !12
  %16 = sext i16 %15 to i32
  %17 = icmp eq i32 %16, 0
  br i1 %17, label %18, label %19

18:                                               ; preds = %13, %3
  store i1 false, ptr %4, align 1
  br label %48

19:                                               ; preds = %13
  %20 = getelementptr inbounds nuw %"class.icu_77::number::impl::Grouper", ptr %8, i32 0, i32 0
  %21 = load i16, ptr %20, align 4, !tbaa !12
  %22 = sext i16 %21 to i32
  %23 = load i32, ptr %6, align 4, !tbaa !68
  %24 = sub nsw i32 %23, %22
  store i32 %24, ptr %6, align 4, !tbaa !68
  %25 = load i32, ptr %6, align 4, !tbaa !68
  %26 = icmp sge i32 %25, 0
  br i1 %26, label %27, label %46

27:                                               ; preds = %19
  %28 = load i32, ptr %6, align 4, !tbaa !68
  %29 = getelementptr inbounds nuw %"class.icu_77::number::impl::Grouper", ptr %8, i32 0, i32 1
  %30 = load i16, ptr %29, align 2, !tbaa !14
  %31 = sext i16 %30 to i32
  %32 = srem i32 %28, %31
  %33 = icmp eq i32 %32, 0
  br i1 %33, label %34, label %46

34:                                               ; preds = %27
  %35 = load ptr, ptr %7, align 8, !tbaa !73
  %36 = call noundef i32 @_ZNK6icu_776number4impl15DecimalQuantity24getUpperDisplayMagnitudeEv(ptr noundef nonnull align 8 dereferenceable(66) %35)
  %37 = getelementptr inbounds nuw %"class.icu_77::number::impl::Grouper", ptr %8, i32 0, i32 0
  %38 = load i16, ptr %37, align 4, !tbaa !12
  %39 = sext i16 %38 to i32
  %40 = sub nsw i32 %36, %39
  %41 = add nsw i32 %40, 1
  %42 = getelementptr inbounds nuw %"class.icu_77::number::impl::Grouper", ptr %8, i32 0, i32 2
  %43 = load i16, ptr %42, align 4, !tbaa !15
  %44 = sext i16 %43 to i32
  %45 = icmp sge i32 %41, %44
  br label %46

46:                                               ; preds = %34, %27, %19
  %47 = phi i1 [ false, %27 ], [ false, %19 ], [ %45, %34 ]
  store i1 %47, ptr %4, align 1
  br label %48

48:                                               ; preds = %46, %18
  %49 = load i1, ptr %4, align 1
  ret i1 %49
}