; Function Attrs: mustprogress uwtable
define noundef zeroext i1 @_ZNK6icu_776number4impl7Grouper15groupAtPositionEiRKNS1_15DecimalQuantityE(ptr noundef nonnull readonly align 4 captures(none) dereferenceable(12) %0, i32 noundef %1, ptr noundef nonnull align 8 dereferenceable(66) %2) local_unnamed_addr #4 align 2 {
  %4 = load i16, ptr %0, align 4, !tbaa !45
  switch i16 %4, label %5 [
    i16 -1, label %25
    i16 0, label %25
  ]

5:                                                ; preds = %3
  %6 = sext i16 %4 to i32
  %7 = sub nsw i32 %1, %6
  %8 = icmp sgt i32 %7, -1
  br i1 %8, label %9, label %25

9:                                                ; preds = %5
  %10 = getelementptr inbounds nuw i8, ptr %0, i64 2
  %11 = load i16, ptr %10, align 2, !tbaa !57
  %12 = sext i16 %11 to i32
  %13 = srem i32 %7, %12
  %14 = icmp eq i32 %13, 0
  br i1 %14, label %15, label %25

15:                                               ; preds = %9
  %16 = tail call noundef i32 @_ZNK6icu_776number4impl15DecimalQuantity24getUpperDisplayMagnitudeEv(ptr noundef nonnull align 8 dereferenceable(66) %2)
  %17 = load i16, ptr %0, align 4, !tbaa !45
  %18 = sext i16 %17 to i32
  %19 = add i32 %16, 1
  %20 = sub i32 %19, %18
  %21 = getelementptr inbounds nuw i8, ptr %0, i64 4
  %22 = load i16, ptr %21, align 4, !tbaa !39
  %23 = sext i16 %22 to i32
  %24 = icmp sge i32 %20, %23
  br label %25

25:                                               ; preds = %5, %9, %15, %3, %3
  %.0 = phi i1 [ false, %3 ], [ false, %3 ], [ false, %9 ], [ false, %5 ], [ %24, %15 ]
  ret i1 %.0
}